target datalayout = "e-m:e-p270:32:32-p271:32:32-p272:64:64-i64:64-i128:128-f80:128-n8:16:32:64-S128"
target triple = "x86_64-pc-linux-gnu"

%struct._cms_typehandler_struct = type { i32, ptr, ptr, ptr, ptr, ptr, i32 }

; Function Attrs: nounwind uwtable
define internal ptr @Type_MPEmatrix_Read(ptr noundef %0, ptr noundef %1, ptr noundef %2, i32 noundef %3) #0 {
  %5 = alloca ptr, align 8
  %6 = alloca ptr, align 8
  %7 = alloca ptr, align 8
  %8 = alloca ptr, align 8
  %9 = alloca i32, align 4
  %10 = alloca ptr, align 8
  %11 = alloca i16, align 2
  %12 = alloca i16, align 2
  %13 = alloca i32, align 4
  %14 = alloca i32, align 4
  %15 = alloca ptr, align 8
  %16 = alloca ptr, align 8
  %17 = alloca float, align 4
  %18 = alloca float, align 4
  store ptr %0, ptr %6, align 8
  store ptr %1, ptr %7, align 8
  store ptr %2, ptr %8, align 8
  store i32 %3, ptr %9, align 4
  %19 = load ptr, ptr %7, align 8
  %20 = call i32 @_cmsReadUInt16Number(ptr noundef %19, ptr noundef %11)
  %21 = icmp ne i32 %20, 0
  br i1 %21, label %23, label %22

22:                                               ; preds = %4
  store ptr null, ptr %5, align 8
  br label %144

23:                                               ; preds = %4
  %24 = load ptr, ptr %7, align 8
  %25 = call i32 @_cmsReadUInt16Number(ptr noundef %24, ptr noundef %12)
  %26 = icmp ne i32 %25, 0
  br i1 %26, label %28, label %27

27:                                               ; preds = %23
  store ptr null, ptr %5, align 8
  br label %144

28:                                               ; preds = %23
  %29 = load i16, ptr %11, align 2
  %30 = zext i16 %29 to i32
  %31 = icmp sge i32 %30, 16
  br i1 %31, label %32, label %33

32:                                               ; preds = %28
  store ptr null, ptr %5, align 8
  br label %144

33:                                               ; preds = %28
  %34 = load i16, ptr %12, align 2
  %35 = zext i16 %34 to i32
  %36 = icmp sge i32 %35, 16
  br i1 %36, label %37, label %38

37:                                               ; preds = %33
  store ptr null, ptr %5, align 8
  br label %144

38:                                               ; preds = %33
  %39 = load i16, ptr %11, align 2
  %40 = zext i16 %39 to i32
  %41 = load i16, ptr %12, align 2
  %42 = zext i16 %41 to i32
  %43 = mul i32 %40, %42
  store i32 %43, ptr %13, align 4
  %44 = load ptr, ptr %6, align 8
  %45 = getelementptr inbounds %struct._cms_typehandler_struct, ptr %44, i32 0, i32 5
  %46 = load ptr, ptr %45, align 8
  %47 = load i32, ptr %13, align 4
  %48 = call ptr @_cmsCalloc(ptr noundef %46, i32 noundef %47, i32 noundef 8)
  store ptr %48, ptr %15, align 8
  %49 = load ptr, ptr %15, align 8
  %50 = icmp eq ptr %49, null
  br i1 %50, label %51, label %52

51:                                               ; preds = %38
  store ptr null, ptr %5, align 8
  br label %144

52:                                               ; preds = %38
  %53 = load ptr, ptr %6, align 8
  %54 = getelementptr inbounds %struct._cms_typehandler_struct, ptr %53, i32 0, i32 5
  %55 = load ptr, ptr %54, align 8
  %56 = load i16, ptr %12, align 2
  %57 = zext i16 %56 to i32
  %58 = call ptr @_cmsCalloc(ptr noundef %55, i32 noundef %57, i32 noundef 8)
  store ptr %58, ptr %16, align 8
  %59 = load ptr, ptr %16, align 8
  %60 = icmp eq ptr %59, null
  br i1 %60, label %61, label %66

61:                                               ; preds = %52
  %62 = load ptr, ptr %6, align 8
  %63 = getelementptr inbounds %struct._cms_typehandler_struct, ptr %62, i32 0, i32 5
  %64 = load ptr, ptr %63, align 8
  %65 = load ptr, ptr %15, align 8
  call void @_cmsFree(ptr noundef %64, ptr noundef %65)
  store ptr null, ptr %5, align 8
  br label %144

66:                                               ; preds = %52
  store i32 0, ptr %14, align 4
  br label %67

67:                                               ; preds = %91, %66
  %68 = load i32, ptr %14, align 4
  %69 = load i32, ptr %13, align 4
  %70 = icmp ult i32 %68, %69
  br i1 %70, label %71, label %94

71:                                               ; preds = %67
  %72 = load ptr, ptr %7, align 8
  %73 = call i32 @_cmsReadFloat32Number(ptr noundef %72, ptr noundef %17)
  %74 = icmp ne i32 %73, 0
  br i1 %74, label %84, label %75

75:                                               ; preds = %71
  %76 = load ptr, ptr %6, align 8
  %77 = getelementptr inbounds %struct._cms_typehandler_struct, ptr %76, i32 0, i32 5
  %78 = load ptr, ptr %77, align 8
  %79 = load ptr, ptr %15, align 8
  call void @_cmsFree(ptr noundef %78, ptr noundef %79)
  %80 = load ptr, ptr %6, align 8
  %81 = getelementptr inbounds %struct._cms_typehandler_struct, ptr %80, i32 0, i32 5
  %82 = load ptr, ptr %81, align 8
  %83 = load ptr, ptr %16, align 8
  call void @_cmsFree(ptr noundef %82, ptr noundef %83)
  store ptr null, ptr %5, align 8
  br label %144

84:                                               ; preds = %71
  %85 = load float, ptr %17, align 4
  %86 = fpext float %85 to double
  %87 = load ptr, ptr %15, align 8
  %88 = load i32, ptr %14, align 4
  %89 = zext i32 %88 to i64
  %90 = getelementptr inbounds double, ptr %87, i64 %89
  store double %86, ptr %90, align 8
  br label %91

91:                                               ; preds = %84
  %92 = load i32, ptr %14, align 4
  %93 = add i32 %92, 1
  store i32 %93, ptr %14, align 4
  br label %67, !llvm.loop !84

94:                                               ; preds = %67
  store i32 0, ptr %14, align 4
  br label %95

95:                                               ; preds = %120, %94
  %96 = load i32, ptr %14, align 4
  %97 = load i16, ptr %12, align 2
  %98 = zext i16 %97 to i32
  %99 = icmp ult i32 %96, %98
  br i1 %99, label %100, label %123

100:                                              ; preds = %95
  %101 = load ptr, ptr %7, align 8
  %102 = call i32 @_cmsReadFloat32Number(ptr noundef %101, ptr noundef %18)
  %103 = icmp ne i32 %102, 0
  br i1 %103, label %113, label %104

104:                                              ; preds = %100
  %105 = load ptr, ptr %6, align 8
  %106 = getelementptr inbounds %struct._cms_typehandler_struct, ptr %105, i32 0, i32 5
  %107 = load ptr, ptr %106, align 8
  %108 = load ptr, ptr %15, align 8
  call void @_cmsFree(ptr noundef %107, ptr noundef %108)
  %109 = load ptr, ptr %6, align 8
  %110 = getelementptr inbounds %struct._cms_typehandler_struct, ptr %109, i32 0, i32 5
  %111 = load ptr, ptr %110, align 8
  %112 = load ptr, ptr %16, align 8
  call void @_cmsFree(ptr noundef %111, ptr noundef %112)
  store ptr null, ptr %5, align 8
  br label %144

113:                                              ; preds = %100
  %114 = load float, ptr %18, align 4
  %115 = fpext float %114 to double
  %116 = load ptr, ptr %16, align 8
  %117 = load i32, ptr %14, align 4
  %118 = zext i32 %117 to i64
  %119 = getelementptr inbounds double, ptr %116, i64 %118
  store double %115, ptr %119, align 8
  br label %120

120:                                              ; preds = %113
  %121 = load i32, ptr %14, align 4
  %122 = add i32 %121, 1
  store i32 %122, ptr %14, align 4
  br label %95, !llvm.loop !85

123:                                              ; preds = %95
  %124 = load ptr, ptr %6, align 8
  %125 = getelementptr inbounds %struct._cms_typehandler_struct, ptr %124, i32 0, i32 5
  %126 = load ptr, ptr %125, align 8
  %127 = load i16, ptr %12, align 2
  %128 = zext i16 %127 to i32
  %129 = load i16, ptr %11, align 2
  %130 = zext i16 %129 to i32
  %131 = load ptr, ptr %15, align 8
  %132 = load ptr, ptr %16, align 8
  %133 = call ptr @cmsStageAllocMatrix(ptr noundef %126, i32 noundef %128, i32 noundef %130, ptr noundef %131, ptr noundef %132)
  store ptr %133, ptr %10, align 8
  %134 = load ptr, ptr %6, align 8
  %135 = getelementptr inbounds %struct._cms_typehandler_struct, ptr %134, i32 0, i32 5
  %136 = load ptr, ptr %135, align 8
  %137 = load ptr, ptr %15, align 8
  call void @_cmsFree(ptr noundef %136, ptr noundef %137)
  %138 = load ptr, ptr %6, align 8
  %139 = getelementptr inbounds %struct._cms_typehandler_struct, ptr %138, i32 0, i32 5
  %140 = load ptr, ptr %139, align 8
  %141 = load ptr, ptr %16, align 8
  call void @_cmsFree(ptr noundef %140, ptr noundef %141)
  %142 = load ptr, ptr %8, align 8
  store i32 1, ptr %142, align 4
  %143 = load ptr, ptr %10, align 8
  store ptr %143, ptr %5, align 8
  br label %144

144:                                              ; preds = %123, %104, %75, %61, %51, %37, %32, %27, %22
  %145 = load ptr, ptr %5, align 8
  ret ptr %145
}