; Function Attrs: nounwind uwtable
define internal ptr @Type_MPEmatrix_Read(ptr nocapture noundef readonly %0, ptr noundef %1, ptr nocapture noundef writeonly %2, i32 %3) #0 {
  %5 = alloca i16, align 2
  %6 = alloca i16, align 2
  %7 = alloca float, align 4
  %8 = alloca float, align 4
  %9 = call i32 @_cmsReadUInt16Number(ptr noundef %1, ptr noundef nonnull %5) #13
  %.not = icmp eq i32 %9, 0
  br i1 %.not, label %59, label %10

10:                                               ; preds = %4
  %11 = call i32 @_cmsReadUInt16Number(ptr noundef %1, ptr noundef nonnull %6) #13
  %.not43 = icmp eq i32 %11, 0
  br i1 %.not43, label %59, label %12

12:                                               ; preds = %10
  %13 = load i16, ptr %5, align 2
  %14 = icmp ugt i16 %13, 15
  br i1 %14, label %59, label %15

15:                                               ; preds = %12
  %16 = load i16, ptr %6, align 2
  %17 = icmp ugt i16 %16, 15
  br i1 %17, label %59, label %18

18:                                               ; preds = %15
  %narrow = mul nuw nsw i16 %16, %13
  %19 = zext nneg i16 %narrow to i32
  %20 = getelementptr inbounds i8, ptr %0, i64 40
  %21 = load ptr, ptr %20, align 8
  %22 = call ptr @_cmsCalloc(ptr noundef %21, i32 noundef %19, i32 noundef 8) #13
  %23 = icmp eq ptr %22, null
  br i1 %23, label %59, label %24

24:                                               ; preds = %18
  %25 = load ptr, ptr %20, align 8
  %26 = load i16, ptr %6, align 2
  %27 = zext i16 %26 to i32
  %28 = call ptr @_cmsCalloc(ptr noundef %25, i32 noundef %27, i32 noundef 8) #13
  %29 = icmp eq ptr %28, null
  br i1 %29, label %30, label %.preheader46

.preheader46:                                     ; preds = %24
  %.not51 = icmp eq i16 %narrow, 0
  br i1 %.not51, label %.preheader, label %.lr.ph.preheader

.lr.ph.preheader:                                 ; preds = %.preheader46
  %wide.trip.count = zext nneg i16 %narrow to i64
  br label %.lr.ph

30:                                               ; preds = %24
  %31 = load ptr, ptr %20, align 8
  call void @_cmsFree(ptr noundef %31, ptr noundef nonnull %22) #13
  br label %59

.preheader:                                       ; preds = %37, %.preheader46
  %32 = load i16, ptr %6, align 2
  %.not52 = icmp eq i16 %32, 0
  br i1 %.not52, label %._crit_edge, label %.lr.ph50

.lr.ph:                                           ; preds = %.lr.ph.preheader, %37
  %indvars.iv = phi i64 [ 0, %.lr.ph.preheader ], [ %indvars.iv.next, %37 ]
  %33 = call i32 @_cmsReadFloat32Number(ptr noundef %1, ptr noundef nonnull %7) #13
  %.not45 = icmp eq i32 %33, 0
  br i1 %.not45, label %34, label %37

34:                                               ; preds = %.lr.ph
  %35 = load ptr, ptr %20, align 8
  call void @_cmsFree(ptr noundef %35, ptr noundef nonnull %22) #13
  %36 = load ptr, ptr %20, align 8
  call void @_cmsFree(ptr noundef %36, ptr noundef nonnull %28) #13
  br label %59

37:                                               ; preds = %.lr.ph
  %38 = load float, ptr %7, align 4
  %39 = fpext float %38 to double
  %40 = getelementptr inbounds double, ptr %22, i64 %indvars.iv
  store double %39, ptr %40, align 8
  %indvars.iv.next = add nuw nsw i64 %indvars.iv, 1
  %exitcond.not = icmp eq i64 %indvars.iv.next, %wide.trip.count
  br i1 %exitcond.not, label %.preheader, label %.lr.ph, !llvm.loop !86

.lr.ph50:                                         ; preds = %.preheader, %45
  %indvars.iv55 = phi i64 [ %indvars.iv.next56, %45 ], [ 0, %.preheader ]
  %41 = call i32 @_cmsReadFloat32Number(ptr noundef %1, ptr noundef nonnull %8) #13
  %.not44 = icmp eq i32 %41, 0
  br i1 %.not44, label %42, label %45

42:                                               ; preds = %.lr.ph50
  %43 = load ptr, ptr %20, align 8
  call void @_cmsFree(ptr noundef %43, ptr noundef nonnull %22) #13
  %44 = load ptr, ptr %20, align 8
  call void @_cmsFree(ptr noundef %44, ptr noundef nonnull %28) #13
  br label %59

45:                                               ; preds = %.lr.ph50
  %46 = load float, ptr %8, align 4
  %47 = fpext float %46 to double
  %48 = getelementptr inbounds double, ptr %28, i64 %indvars.iv55
  store double %47, ptr %48, align 8
  %indvars.iv.next56 = add nuw nsw i64 %indvars.iv55, 1
  %49 = load i16, ptr %6, align 2
  %50 = zext i16 %49 to i64
  %51 = icmp ult i64 %indvars.iv.next56, %50
  br i1 %51, label %.lr.ph50, label %._crit_edge.loopexit, !llvm.loop !87

._crit_edge.loopexit:                             ; preds = %45
  %52 = zext i16 %49 to i32
  br label %._crit_edge

._crit_edge:                                      ; preds = %._crit_edge.loopexit, %.preheader
  %.lcssa.in = phi i32 [ 0, %.preheader ], [ %52, %._crit_edge.loopexit ]
  %53 = load ptr, ptr %20, align 8
  %54 = load i16, ptr %5, align 2
  %55 = zext i16 %54 to i32
  %56 = call ptr @cmsStageAllocMatrix(ptr noundef %53, i32 noundef %.lcssa.in, i32 noundef %55, ptr noundef nonnull %22, ptr noundef nonnull %28) #13
  %57 = load ptr, ptr %20, align 8
  call void @_cmsFree(ptr noundef %57, ptr noundef nonnull %22) #13
  %58 = load ptr, ptr %20, align 8
  call void @_cmsFree(ptr noundef %58, ptr noundef nonnull %28) #13
  store i32 1, ptr %2, align 4
  br label %59

59:                                               ; preds = %18, %15, %12, %10, %4, %._crit_edge, %42, %34, %30
  %.0 = phi ptr [ null, %30 ], [ null, %34 ], [ null, %42 ], [ %56, %._crit_edge ], [ null, %4 ], [ null, %10 ], [ null, %12 ], [ null, %15 ], [ null, %18 ]
  ret ptr %.0
}